; Function Attrs: nounwind uwtable
define range(i32 0, 2) i32 @ossl_quic_wire_decode_frame_conn_close(ptr noundef captures(none) %0, ptr noundef captures(none) %1) local_unnamed_addr #2 {
  %3 = getelementptr i8, ptr %0, i64 8
  %.val.i.i.i = load i64, ptr %3, align 8, !tbaa !52
  %4 = icmp eq i64 %.val.i.i.i, 0
  br i1 %4, label %expect_frame_header_mask.exit.thread, label %5

5:                                                ; preds = %2
  %6 = load ptr, ptr %0, align 8, !tbaa !54
  %7 = load i8, ptr %6, align 1, !tbaa !55
  %8 = lshr i8 %7, 6
  %9 = zext nneg i8 %8 to i32
  %10 = shl nuw nsw i32 1, %9
  %11 = zext nneg i32 %10 to i64
  %12 = icmp ult i64 %.val.i.i.i, %11
  br i1 %12, label %expect_frame_header_mask.exit.thread, label %13

13:                                               ; preds = %5
  %14 = tail call i64 @ossl_quic_vlint_decode_unchecked(ptr noundef nonnull %6) #12
  %15 = load ptr, ptr %0, align 8, !tbaa !54
  %16 = getelementptr inbounds nuw i8, ptr %15, i64 %11
  store ptr %16, ptr %0, align 8, !tbaa !54
  %17 = load i64, ptr %3, align 8, !tbaa !52
  %18 = sub i64 %17, %11
  store i64 %18, ptr %3, align 8, !tbaa !52
  %19 = and i64 %14, -2
  %.not6.i = icmp eq i64 %19, 28
  br i1 %.not6.i, label %expect_frame_header_mask.exit, label %expect_frame_header_mask.exit.thread

expect_frame_header_mask.exit:                    ; preds = %13
  %20 = getelementptr inbounds nuw i8, ptr %1, i64 8
  %21 = icmp eq i64 %17, %11
  br i1 %21, label %expect_frame_header_mask.exit.thread, label %22

22:                                               ; preds = %expect_frame_header_mask.exit
  %23 = load i8, ptr %16, align 1, !tbaa !55
  %24 = lshr i8 %23, 6
  %25 = zext nneg i8 %24 to i32
  %26 = shl nuw nsw i32 1, %25
  %27 = zext nneg i32 %26 to i64
  %28 = icmp ult i64 %18, %27
  br i1 %28, label %expect_frame_header_mask.exit.thread, label %29

29:                                               ; preds = %22
  %30 = tail call i64 @ossl_quic_vlint_decode_unchecked(ptr noundef nonnull %16) #12
  store i64 %30, ptr %20, align 8, !tbaa !56
  %31 = load ptr, ptr %0, align 8, !tbaa !54
  %32 = getelementptr inbounds nuw i8, ptr %31, i64 %27
  store ptr %32, ptr %0, align 8, !tbaa !54
  %33 = load i64, ptr %3, align 8, !tbaa !52
  %34 = sub i64 %33, %27
  store i64 %34, ptr %3, align 8, !tbaa !52
  %35 = trunc nuw i64 %14 to i8
  %36 = and i8 %35, 1
  %37 = load i8, ptr %1, align 8
  %38 = and i8 %37, -2
  %39 = or disjoint i8 %38, %36
  store i8 %39, ptr %1, align 8
  %.not14 = icmp eq i8 %36, 0
  %40 = getelementptr inbounds nuw i8, ptr %1, i64 16
  br i1 %.not14, label %41, label %56

41:                                               ; preds = %29
  %.val.i18 = load i64, ptr %3, align 8, !tbaa !52
  %42 = icmp eq i64 %.val.i18, 0
  br i1 %42, label %expect_frame_header_mask.exit.thread, label %43

43:                                               ; preds = %41
  %44 = load ptr, ptr %0, align 8, !tbaa !54
  %45 = load i8, ptr %44, align 1, !tbaa !55
  %46 = lshr i8 %45, 6
  %47 = zext nneg i8 %46 to i32
  %48 = shl nuw nsw i32 1, %47
  %49 = zext nneg i32 %48 to i64
  %50 = icmp ult i64 %.val.i18, %49
  br i1 %50, label %expect_frame_header_mask.exit.thread, label %PACKET_get_quic_vlint.exit20

PACKET_get_quic_vlint.exit20:                     ; preds = %43
  %51 = tail call i64 @ossl_quic_vlint_decode_unchecked(ptr noundef nonnull %44) #12
  store i64 %51, ptr %40, align 8, !tbaa !56
  %52 = load ptr, ptr %0, align 8, !tbaa !54
  %53 = getelementptr inbounds nuw i8, ptr %52, i64 %49
  store ptr %53, ptr %0, align 8, !tbaa !54
  %54 = load i64, ptr %3, align 8, !tbaa !52
  %55 = sub i64 %54, %49
  store i64 %55, ptr %3, align 8, !tbaa !52
  br label %57

56:                                               ; preds = %29
  store i64 0, ptr %40, align 8, !tbaa !48
  %.val.i21.pr = load i64, ptr %3, align 8, !tbaa !52
  br label %57

57:                                               ; preds = %PACKET_get_quic_vlint.exit20, %56
  %.val.i21 = phi i64 [ %55, %PACKET_get_quic_vlint.exit20 ], [ %.val.i21.pr, %56 ]
  %58 = icmp eq i64 %.val.i21, 0
  br i1 %58, label %expect_frame_header_mask.exit.thread, label %59

59:                                               ; preds = %57
  %60 = load ptr, ptr %0, align 8, !tbaa !54
  %61 = load i8, ptr %60, align 1, !tbaa !55
  %62 = lshr i8 %61, 6
  %63 = zext nneg i8 %62 to i32
  %64 = shl nuw nsw i32 1, %63
  %65 = zext nneg i32 %64 to i64
  %66 = icmp ult i64 %.val.i21, %65
  br i1 %66, label %expect_frame_header_mask.exit.thread, label %67

67:                                               ; preds = %59
  %68 = tail call i64 @ossl_quic_vlint_decode_unchecked(ptr noundef nonnull %60) #12
  %69 = load ptr, ptr %0, align 8, !tbaa !54
  %70 = getelementptr inbounds nuw i8, ptr %69, i64 %65
  store ptr %70, ptr %0, align 8, !tbaa !54
  %71 = load i64, ptr %3, align 8, !tbaa !52
  %72 = sub i64 %71, %65
  store i64 %72, ptr %3, align 8, !tbaa !52
  %73 = icmp ult i64 %72, %68
  br i1 %73, label %expect_frame_header_mask.exit.thread, label %74

74:                                               ; preds = %67
  %75 = getelementptr inbounds nuw i8, ptr %1, i64 24
  store ptr %70, ptr %75, align 8, !tbaa !33
  %76 = getelementptr inbounds nuw i8, ptr %70, i64 %68
  store ptr %76, ptr %0, align 8, !tbaa !54
  %77 = sub nuw i64 %72, %68
  store i64 %77, ptr %3, align 8, !tbaa !52
  %78 = getelementptr inbounds nuw i8, ptr %1, i64 32
  store i64 %68, ptr %78, align 8, !tbaa !49
  br label %expect_frame_header_mask.exit.thread

expect_frame_header_mask.exit.thread:             ; preds = %67, %59, %57, %43, %41, %22, %expect_frame_header_mask.exit, %5, %2, %13, %74
  %.0 = phi i32 [ 1, %74 ], [ 0, %13 ], [ 0, %2 ], [ 0, %5 ], [ 0, %expect_frame_header_mask.exit ], [ 0, %22 ], [ 0, %41 ], [ 0, %43 ], [ 0, %57 ], [ 0, %59 ], [ 0, %67 ]
  ret i32 %.0
}